	.file	"asm-offsets.c"
# GNU C11 (Ubuntu 7.4.0-1ubuntu1~18.04.1) version 7.4.0 (x86_64-linux-gnu)
#	compiled by GNU C version 7.4.0, GMP version 6.1.2, MPFR version 4.0.1, MPC version 1.1.0, isl version isl-0.19-GMP

# GGC heuristics: --param ggc-min-expand=100 --param ggc-min-heapsize=131072
# options passed:  -nostdinc -I include -imultiarch x86_64-linux-gnu
# -D __KERNEL__ -D KBUILD_STR(s)=#s
# -D KBUILD_BASENAME=KBUILD_STR(asm_offsets)
# -D KBUILD_MODNAME=KBUILD_STR(asm_offsets)
# -isystem /usr/lib/gcc/x86_64-linux-gnu/7/include
# -include include/linux/autoconf.h -MD arch/x86_64/kernel/.asm-offsets.s.d
# arch/x86_64/kernel/asm-offsets.c -mtune=generic -m64 -mno-red-zone
# -mcmodel=kernel -mno-sse -mno-mmx -mno-sse2 -mno-3dnow
# -maccumulate-outgoing-args -march=x86-64
# -auxbase-strip arch/x86_64/kernel/asm-offsets.s -g -O2 -Wall -Wundef
# -Wstrict-prototypes -Wno-trigraphs -Wno-sign-compare
# -Wdeclaration-after-statement -Wno-pointer-sign -fno-strict-aliasing
# -fno-common -fno-pie -fno-asynchronous-unwind-tables -funit-at-a-time
# -fno-omit-frame-pointer -fno-optimize-sibling-calls -fno-stack-protector
# -fverbose-asm -Wformat-security
# options enabled:  -faggressive-loop-optimizations -falign-labels
# -fauto-inc-dec -fbranch-count-reg -fcaller-saves
# -fchkp-check-incomplete-type -fchkp-check-read -fchkp-check-write
# -fchkp-instrument-calls -fchkp-narrow-bounds -fchkp-optimize
# -fchkp-store-bounds -fchkp-use-static-bounds
# -fchkp-use-static-const-bounds -fchkp-use-wrappers -fcode-hoisting
# -fcombine-stack-adjustments -fcompare-elim -fcprop-registers
# -fcrossjumping -fcse-follow-jumps -fdefer-pop
# -fdelete-null-pointer-checks -fdevirtualize -fdevirtualize-speculatively
# -fdwarf2-cfi-asm -fearly-inlining -feliminate-unused-debug-types
# -fexpensive-optimizations -fforward-propagate -ffp-int-builtin-inexact
# -ffunction-cse -fgcse -fgcse-lm -fgnu-runtime -fgnu-unique
# -fguess-branch-probability -fhoist-adjacent-loads -fident -fif-conversion
# -fif-conversion2 -findirect-inlining -finline -finline-atomics
# -finline-functions-called-once -finline-small-functions -fipa-bit-cp
# -fipa-cp -fipa-icf -fipa-icf-functions -fipa-icf-variables -fipa-profile
# -fipa-pure-const -fipa-ra -fipa-reference -fipa-sra -fipa-vrp
# -fira-hoist-pressure -fira-share-save-slots -fira-share-spill-slots
# -fisolate-erroneous-paths-dereference -fivopts -fkeep-static-consts
# -fleading-underscore -flifetime-dse -flra-remat -flto-odr-type-merging
# -fmath-errno -fmerge-constants -fmerge-debug-strings
# -fmove-loop-invariants -foptimize-strlen -fpartial-inlining -fpeephole
# -fpeephole2 -fplt -fprefetch-loop-arrays -free -freg-struct-return
# -freorder-blocks -freorder-functions -frerun-cse-after-loop
# -fsched-critical-path-heuristic -fsched-dep-count-heuristic
# -fsched-group-heuristic -fsched-interblock -fsched-last-insn-heuristic
# -fsched-rank-heuristic -fsched-spec -fsched-spec-insn-heuristic
# -fsched-stalled-insns-dep -fschedule-fusion -fschedule-insns2
# -fsemantic-interposition -fshow-column -fshrink-wrap
# -fshrink-wrap-separate -fsigned-zeros -fsplit-ivs-in-unroller
# -fsplit-wide-types -fssa-backprop -fssa-phiopt -fstdarg-opt
# -fstore-merging -fstrict-overflow -fstrict-volatile-bitfields
# -fsync-libcalls -fthread-jumps -ftoplevel-reorder -ftrapping-math
# -ftree-bit-ccp -ftree-builtin-call-dce -ftree-ccp -ftree-ch
# -ftree-coalesce-vars -ftree-copy-prop -ftree-cselim -ftree-dce
# -ftree-dominator-opts -ftree-dse -ftree-forwprop -ftree-fre
# -ftree-loop-if-convert -ftree-loop-im -ftree-loop-ivcanon
# -ftree-loop-optimize -ftree-parallelize-loops= -ftree-phiprop -ftree-pre
# -ftree-pta -ftree-reassoc -ftree-scev-cprop -ftree-sink -ftree-slsr
# -ftree-sra -ftree-switch-conversion -ftree-tail-merge -ftree-ter
# -ftree-vrp -funit-at-a-time -fvar-tracking -fvar-tracking-assignments
# -fverbose-asm -fzero-initialized-in-bss -m128bit-long-double -m64 -m80387
# -maccumulate-outgoing-args -malign-stringops
# -mavx256-split-unaligned-load -mavx256-split-unaligned-store
# -mfancy-math-387 -mfp-ret-in-387 -mfxsr -mglibc -mieee-fp
# -mlong-double-80 -mno-red-zone -mno-sse4 -mpush-args -mstv
# -mtls-direct-seg-refs -mvzeroupper

	.text
.Ltext0:
	.cfi_sections	.debug_frame
	.section	.text.startup,"ax",@progbits
	.p2align 4,,15
	.globl	main
	.type	main, @function
main:
.LFB833:
	.file 1 "arch/x86_64/kernel/asm-offsets.c"
	.loc 1 33 0
	.cfi_startproc
	pushq	%rbp	#
	.cfi_def_cfa_offset 16
	.cfi_offset 6, -16
	movq	%rsp, %rbp	#,
	.cfi_def_cfa_register 6
# arch/x86_64/kernel/asm-offsets.c:35: 	ENTRY(state);
	.loc 1 35 0
#APP
# 35 "arch/x86_64/kernel/asm-offsets.c" 1
	
->tsk_state $0 offsetof(struct task_struct, state)	#
# 0 "" 2
# arch/x86_64/kernel/asm-offsets.c:36: 	ENTRY(flags); 
	.loc 1 36 0
# 36 "arch/x86_64/kernel/asm-offsets.c" 1
	
->tsk_flags $20 offsetof(struct task_struct, flags)	#
# 0 "" 2
# arch/x86_64/kernel/asm-offsets.c:37: 	ENTRY(thread); 
	.loc 1 37 0
# 37 "arch/x86_64/kernel/asm-offsets.c" 1
	
->tsk_thread $704 offsetof(struct task_struct, thread)	#
# 0 "" 2
# arch/x86_64/kernel/asm-offsets.c:38: 	ENTRY(pid);
	.loc 1 38 0
# 38 "arch/x86_64/kernel/asm-offsets.c" 1
	
->tsk_pid $272 offsetof(struct task_struct, pid)	#
# 0 "" 2
# arch/x86_64/kernel/asm-offsets.c:39: 	BLANK();
	.loc 1 39 0
# 39 "arch/x86_64/kernel/asm-offsets.c" 1
	
->
# 0 "" 2
# arch/x86_64/kernel/asm-offsets.c:42: 	ENTRY(flags);
	.loc 1 42 0
# 42 "arch/x86_64/kernel/asm-offsets.c" 1
	
->threadinfo_flags $16 offsetof(struct thread_info, flags)	#
# 0 "" 2
# arch/x86_64/kernel/asm-offsets.c:43: 	ENTRY(addr_limit);
	.loc 1 43 0
# 43 "arch/x86_64/kernel/asm-offsets.c" 1
	
->threadinfo_addr_limit $32 offsetof(struct thread_info, addr_limit)	#
# 0 "" 2
# arch/x86_64/kernel/asm-offsets.c:44: 	ENTRY(preempt_count);
	.loc 1 44 0
# 44 "arch/x86_64/kernel/asm-offsets.c" 1
	
->threadinfo_preempt_count $28 offsetof(struct thread_info, preempt_count)	#
# 0 "" 2
# arch/x86_64/kernel/asm-offsets.c:45: 	ENTRY(status);
	.loc 1 45 0
# 45 "arch/x86_64/kernel/asm-offsets.c" 1
	
->threadinfo_status $20 offsetof(struct thread_info, status)	#
# 0 "" 2
# arch/x86_64/kernel/asm-offsets.c:46: 	BLANK();
	.loc 1 46 0
# 46 "arch/x86_64/kernel/asm-offsets.c" 1
	
->
# 0 "" 2
# arch/x86_64/kernel/asm-offsets.c:49: 	ENTRY(kernelstack); 
	.loc 1 49 0
# 49 "arch/x86_64/kernel/asm-offsets.c" 1
	
->pda_kernelstack $16 offsetof(struct x8664_pda, kernelstack)	#
# 0 "" 2
# arch/x86_64/kernel/asm-offsets.c:50: 	ENTRY(oldrsp); 
	.loc 1 50 0
# 50 "arch/x86_64/kernel/asm-offsets.c" 1
	
->pda_oldrsp $24 offsetof(struct x8664_pda, oldrsp)	#
# 0 "" 2
# arch/x86_64/kernel/asm-offsets.c:51: 	ENTRY(pcurrent); 
	.loc 1 51 0
# 51 "arch/x86_64/kernel/asm-offsets.c" 1
	
->pda_pcurrent $0 offsetof(struct x8664_pda, pcurrent)	#
# 0 "" 2
# arch/x86_64/kernel/asm-offsets.c:52: 	ENTRY(irqcount);
	.loc 1 52 0
# 52 "arch/x86_64/kernel/asm-offsets.c" 1
	
->pda_irqcount $32 offsetof(struct x8664_pda, irqcount)	#
# 0 "" 2
# arch/x86_64/kernel/asm-offsets.c:53: 	ENTRY(cpunumber);
	.loc 1 53 0
# 53 "arch/x86_64/kernel/asm-offsets.c" 1
	
->pda_cpunumber $36 offsetof(struct x8664_pda, cpunumber)	#
# 0 "" 2
# arch/x86_64/kernel/asm-offsets.c:54: 	ENTRY(irqstackptr);
	.loc 1 54 0
# 54 "arch/x86_64/kernel/asm-offsets.c" 1
	
->pda_irqstackptr $40 offsetof(struct x8664_pda, irqstackptr)	#
# 0 "" 2
# arch/x86_64/kernel/asm-offsets.c:55: 	ENTRY(data_offset);
	.loc 1 55 0
# 55 "arch/x86_64/kernel/asm-offsets.c" 1
	
->pda_data_offset $8 offsetof(struct x8664_pda, data_offset)	#
# 0 "" 2
# arch/x86_64/kernel/asm-offsets.c:56: 	BLANK();
	.loc 1 56 0
# 56 "arch/x86_64/kernel/asm-offsets.c" 1
	
->
# 0 "" 2
# arch/x86_64/kernel/asm-offsets.c:75: 	DEFINE(pbe_address, offsetof(struct pbe, address));
	.loc 1 75 0
# 75 "arch/x86_64/kernel/asm-offsets.c" 1
	
->pbe_address $0 offsetof(struct pbe, address)	#
# 0 "" 2
# arch/x86_64/kernel/asm-offsets.c:76: 	DEFINE(pbe_orig_address, offsetof(struct pbe, orig_address));
	.loc 1 76 0
# 76 "arch/x86_64/kernel/asm-offsets.c" 1
	
->pbe_orig_address $8 offsetof(struct pbe, orig_address)	#
# 0 "" 2
# arch/x86_64/kernel/asm-offsets.c:77: 	DEFINE(pbe_next, offsetof(struct pbe, next));
	.loc 1 77 0
# 77 "arch/x86_64/kernel/asm-offsets.c" 1
	
->pbe_next $16 offsetof(struct pbe, next)	#
# 0 "" 2
# arch/x86_64/kernel/asm-offsets.c:78: 	BLANK();
	.loc 1 78 0
# 78 "arch/x86_64/kernel/asm-offsets.c" 1
	
->
# 0 "" 2
# arch/x86_64/kernel/asm-offsets.c:79: 	DEFINE(TSS_ist, offsetof(struct tss_struct, ist));
	.loc 1 79 0
# 79 "arch/x86_64/kernel/asm-offsets.c" 1
	
->TSS_ist $36 offsetof(struct tss_struct, ist)	#
# 0 "" 2
# arch/x86_64/kernel/asm-offsets.c:80: 	BLANK();
	.loc 1 80 0
# 80 "arch/x86_64/kernel/asm-offsets.c" 1
	
->
# 0 "" 2
# arch/x86_64/kernel/asm-offsets.c:81: 	DEFINE(crypto_tfm_ctx_offset, offsetof(struct crypto_tfm, __crt_ctx));
	.loc 1 81 0
# 81 "arch/x86_64/kernel/asm-offsets.c" 1
	
->crypto_tfm_ctx_offset $96 offsetof(struct crypto_tfm, __crt_ctx)	#
# 0 "" 2
# arch/x86_64/kernel/asm-offsets.c:82: 	BLANK();
	.loc 1 82 0
# 82 "arch/x86_64/kernel/asm-offsets.c" 1
	
->
# 0 "" 2
# arch/x86_64/kernel/asm-offsets.c:83: 	DEFINE(__NR_syscall_max, sizeof(syscalls) - 1);
	.loc 1 83 0
# 83 "arch/x86_64/kernel/asm-offsets.c" 1
	
->__NR_syscall_max $289 sizeof(syscalls) - 1	#
# 0 "" 2
# arch/x86_64/kernel/asm-offsets.c:85: }
	.loc 1 85 0
#NO_APP
	xorl	%eax, %eax	#
	popq	%rbp	#
	.cfi_restore 6
	.cfi_def_cfa 7, 8
	ret
	.cfi_endproc
.LFE833:
	.size	main, .-main
	.text
.Letext0:
	.file 2 "include/asm/posix_types.h"
	.file 3 "include/asm/types.h"
	.file 4 "include/linux/types.h"
	.file 5 "include/asm/atomic.h"
	.file 6 "include/asm-generic/atomic.h"
	.file 7 "include/linux/thread_info.h"
	.file 8 "include/asm/page.h"
	.file 9 "include/asm-generic/bug.h"
	.file 10 "include/linux/kernel.h"
	.file 11 "include/linux/notifier.h"
	.file 12 "include/asm/pda.h"
	.file 13 "include/linux/sched.h"
	.file 14 "include/asm/mmsegment.h"
	.file 15 "include/asm/thread_info.h"
	.file 16 "include/linux/personality.h"
	.file 17 "include/asm/ptrace.h"
	.file 18 "include/linux/module.h"
	.file 19 "include/linux/cpumask.h"
	.file 20 "include/asm/processor.h"
	.file 21 "include/linux/list.h"
	.file 22 "include/linux/debug_locks.h"
	.file 23 "include/linux/stacktrace.h"
	.file 24 "include/linux/lockdep.h"
	.file 25 "include/linux/spinlock_types_up.h"
	.file 26 "include/linux/spinlock_types.h"
	.file 27 "include/linux/seqlock.h"
	.file 28 "include/linux/time.h"
	.file 29 "include/linux/stat.h"
	.file 30 "include/linux/elf.h"
	.file 31 "include/linux/sysfs.h"
	.file 32 "include/linux/kobject.h"
	.file 33 "include/linux/mm.h"
	.file 34 "include/linux/kref.h"
	.file 35 "include/linux/wait.h"
	.file 36 "include/linux/dcache.h"
	.file 37 "include/linux/init.h"
	.file 38 "include/linux/nodemask.h"
	.file 39 "include/linux/mmzone.h"
	.file 40 "include/linux/mm_types.h"
	.file 41 "include/linux/mutex.h"
	.file 42 "include/linux/rwsem-spinlock.h"
	.file 43 "include/linux/slub_def.h"
	.file 44 "include/asm/vsyscall.h"
	.file 45 "include/asm/hpet.h"
	.file 46 "include/asm-i386/tsc.h"
	.file 47 "include/linux/timex.h"
	.file 48 "include/linux/jiffies.h"
	.file 49 "include/linux/ktime.h"
	.file 50 "include/linux/timer.h"
	.file 51 "include/linux/workqueue.h"
	.file 52 "include/asm/local.h"
	.file 53 "include/asm/uaccess.h"
	.file 54 "include/linux/capability.h"
	.file 55 "include/linux/rbtree.h"
	.file 56 "include/asm/semaphore.h"
	.file 57 "include/asm/mmu.h"
	.file 58 "include/asm-generic/cputime.h"
	.file 59 "include/linux/ipc.h"
	.file 60 "include/linux/sem.h"
	.file 61 "include/asm/signal.h"
	.file 62 "include/asm-generic/signal.h"
	.file 63 "include/asm-generic/siginfo.h"
	.file 64 "include/linux/signal.h"
	.file 65 "include/linux/securebits.h"
	.file 66 "include/linux/fs_struct.h"
	.file 67 "include/linux/completion.h"
	.file 68 "include/linux/rcupdate.h"
	.file 69 "include/linux/pid.h"
	.file 70 "include/linux/seccomp.h"
	.file 71 "include/linux/futex.h"
	.file 72 "include/linux/fs.h"
	.file 73 "include/linux/plist.h"
	.file 74 "include/linux/resource.h"
	.file 75 "include/linux/hrtimer.h"
	.file 76 "include/asm/module.h"
	.file 77 "include/linux/task_io_accounting.h"
	.file 78 "include/linux/aio_abi.h"
	.file 79 "include/linux/uio.h"
	.file 80 "include/linux/aio.h"
	.file 81 "include/linux/swap.h"
	.file 82 "include/linux/backing-dev.h"
	.file 83 "include/asm-generic/irq_regs.h"
	.file 84 "include/linux/irq.h"
	.file 85 "include/linux/profile.h"
	.file 86 "include/asm/hw_irq.h"
	.file 87 "include/linux/pm.h"
	.file 88 "include/linux/delay.h"
	.file 89 "include/asm/apic.h"
	.file 90 "include/asm/desc_defs.h"
	.file 91 "include/asm/desc.h"
	.file 92 "include/asm/i387.h"
	.file 93 "include/asm/suspend.h"
	.file 94 "include/linux/prio_tree.h"
	.file 95 "include/asm-generic/ioctl.h"
	.file 96 "include/linux/namei.h"
	.file 97 "include/linux/radix-tree.h"
	.file 98 "include/linux/quota.h"
	.file 99 "include/linux/dqblk_xfs.h"
	.file 100 "include/linux/dqblk_v1.h"
	.file 101 "include/linux/dqblk_v2.h"
	.file 102 "include/linux/nfs_fs_i.h"
	.file 103 "include/asm/pgtable.h"
	.file 104 "include/linux/vmstat.h"
	.section	.note.GNU-stack,"",@progbits
